target datalayout = "e-m:e-p270:32:32-p271:32:32-p272:64:64-i64:64-i128:128-f80:128-n8:16:32:64-S128"
target triple = "x86_64-pc-linux-gnu"

%struct._object = type { %union.anon, ptr }
%union.anon = type { i64 }
%struct.PyMutex = type { i8 }
%struct.anon = type { i32, i32 }

@grp_getgrall_impl.getgrall_mutex = internal global %struct.PyMutex zeroinitializer, align 1

; Function Attrs: alwaysinline nounwind uwtable
define internal i32 @_Py_IsImmortal(ptr noundef %0) #4 {
  %2 = alloca ptr, align 8
  store ptr %0, ptr %2, align 8, !tbaa !3
  %3 = load ptr, ptr %2, align 8, !tbaa !3
  %4 = getelementptr inbounds nuw %struct._object, ptr %3, i32 0, i32 0
  %5 = getelementptr inbounds nuw %struct.anon, ptr %4, i32 0, i32 0
  %6 = load i32, ptr %5, align 8, !tbaa !27
  %7 = icmp slt i32 %6, 0
  %8 = zext i1 %7 to i32
  ret i32 %8
}

; Function Attrs: inlinehint nounwind uwtable
define internal i32 @_Py_atomic_compare_exchange_uint8(ptr noundef %0, ptr noundef %1, i8 noundef zeroext %2) #5 {
  %4 = alloca ptr, align 8
  %5 = alloca ptr, align 8
  %6 = alloca i8, align 1
  %7 = alloca i8, align 1
  %8 = alloca i8, align 1
  store ptr %0, ptr %4, align 8, !tbaa !21
  store ptr %1, ptr %5, align 8, !tbaa !21
  store i8 %2, ptr %6, align 1, !tbaa !27
  %9 = load ptr, ptr %4, align 8, !tbaa !21
  %10 = load ptr, ptr %5, align 8, !tbaa !21
  %11 = load i8, ptr %6, align 1, !tbaa !27
  store i8 %11, ptr %7, align 1, !tbaa !27
  %12 = load i8, ptr %10, align 1
  %13 = load i8, ptr %7, align 1
  %14 = cmpxchg ptr %9, i8 %12, i8 %13 seq_cst seq_cst, align 1
  %15 = extractvalue { i8, i1 } %14, 0
  %16 = extractvalue { i8, i1 } %14, 1
  br i1 %16, label %18, label %17

17:                                               ; preds = %3
  store i8 %15, ptr %10, align 1
  br label %18

18:                                               ; preds = %17, %3
  %19 = zext i1 %16 to i8
  store i8 %19, ptr %8, align 1, !tbaa !48
  %20 = load i8, ptr %8, align 1, !tbaa !48, !range !50, !noundef !51
  %21 = trunc i8 %20 to i1
  %22 = zext i1 %21 to i32
  ret i32 %22
}

; Function Attrs: inlinehint nounwind uwtable
define internal void @_PyMutex_Unlock(ptr noundef %0) #5 {
  %2 = alloca ptr, align 8
  %3 = alloca i8, align 1
  store ptr %0, ptr %2, align 8, !tbaa !46
  call void @llvm.lifetime.start.p0(i64 1, ptr %3) #7
  store i8 1, ptr %3, align 1, !tbaa !27
  %4 = load ptr, ptr %2, align 8, !tbaa !46
  %5 = getelementptr inbounds nuw %struct.PyMutex, ptr %4, i32 0, i32 0
  %6 = call i32 @_Py_atomic_compare_exchange_uint8(ptr noundef %5, ptr noundef %3, i8 noundef zeroext 0)
  %7 = icmp ne i32 %6, 0
  br i1 %7, label %10, label %8

8:                                                ; preds = %1
  %9 = load ptr, ptr %2, align 8, !tbaa !46
  call void @PyMutex_Unlock(ptr noundef %9)
  br label %10

10:                                               ; preds = %8, %1
  call void @llvm.lifetime.end.p0(i64 1, ptr %3) #7
  ret void
}

; Function Attrs: alwaysinline nounwind uwtable
define internal void @Py_DECREF(ptr noundef %0) #4 {
  %2 = alloca ptr, align 8
  store ptr %0, ptr %2, align 8, !tbaa !3
  %3 = load ptr, ptr %2, align 8, !tbaa !3
  %4 = call i32 @_Py_IsImmortal(ptr noundef %3)
  %5 = icmp ne i32 %4, 0
  br i1 %5, label %6, label %7

6:                                                ; preds = %1
  br label %16

7:                                                ; preds = %1
  %8 = load ptr, ptr %2, align 8, !tbaa !3
  %9 = getelementptr inbounds nuw %struct._object, ptr %8, i32 0, i32 0
  %10 = getelementptr inbounds nuw %struct.anon, ptr %9, i32 0, i32 0
  %11 = load i32, ptr %10, align 8, !tbaa !27
  %12 = add i32 %11, -1
  store i32 %12, ptr %10, align 8, !tbaa !27
  %13 = icmp eq i32 %12, 0
  br i1 %13, label %14, label %16

14:                                               ; preds = %7
  %15 = load ptr, ptr %2, align 8, !tbaa !3
  call void @_Py_Dealloc(ptr noundef %15)
  br label %16

16:                                               ; preds = %6, %14, %7
  ret void
}

; Function Attrs: inlinehint nounwind uwtable
define internal void @Py_XDECREF(ptr noundef %0) #5 {
  %2 = alloca ptr, align 8
  store ptr %0, ptr %2, align 8, !tbaa !3
  %3 = load ptr, ptr %2, align 8, !tbaa !3
  %4 = icmp ne ptr %3, null
  br i1 %4, label %5, label %7

5:                                                ; preds = %1
  %6 = load ptr, ptr %2, align 8, !tbaa !3
  call void @Py_DECREF(ptr noundef %6)
  br label %7

7:                                                ; preds = %5, %1
  ret void
}

; Function Attrs: inlinehint nounwind uwtable
define internal void @_PyMutex_Lock(ptr noundef %0) #5 {
  %2 = alloca ptr, align 8
  %3 = alloca i8, align 1
  store ptr %0, ptr %2, align 8, !tbaa !46
  call void @llvm.lifetime.start.p0(i64 1, ptr %3) #7
  store i8 0, ptr %3, align 1, !tbaa !27
  %4 = load ptr, ptr %2, align 8, !tbaa !46
  %5 = getelementptr inbounds nuw %struct.PyMutex, ptr %4, i32 0, i32 0
  %6 = call i32 @_Py_atomic_compare_exchange_uint8(ptr noundef %5, ptr noundef %3, i8 noundef zeroext 1)
  %7 = icmp ne i32 %6, 0
  br i1 %7, label %10, label %8

8:                                                ; preds = %1
  %9 = load ptr, ptr %2, align 8, !tbaa !46
  call void @PyMutex_Lock(ptr noundef %9)
  br label %10

10:                                               ; preds = %8, %1
  call void @llvm.lifetime.end.p0(i64 1, ptr %3) #7
  ret void
}

; Function Attrs: nounwind uwtable
define internal ptr @grp_getgrall_impl(ptr noundef %0) #0 {
  %2 = alloca ptr, align 8
  %3 = alloca ptr, align 8
  %4 = alloca ptr, align 8
  %5 = alloca i32, align 4
  %6 = alloca ptr, align 8
  %7 = alloca ptr, align 8
  %8 = alloca ptr, align 8
  %9 = alloca ptr, align 8
  store ptr %0, ptr %3, align 8, !tbaa !3
  call void @llvm.lifetime.start.p0(i64 8, ptr %4) #7
  %10 = call ptr @PyList_New(i64 noundef 0)
  store ptr %10, ptr %4, align 8, !tbaa !3
  %11 = load ptr, ptr %4, align 8, !tbaa !3
  %12 = icmp eq ptr %11, null
  br i1 %12, label %13, label %14

13:                                               ; preds = %1
  store ptr null, ptr %2, align 8
  store i32 1, ptr %5, align 4
  br label %51

14:                                               ; preds = %1
  call void @_PyMutex_Lock(ptr noundef @grp_getgrall_impl.getgrall_mutex)
  call void @setgrent()
  call void @llvm.lifetime.start.p0(i64 8, ptr %6) #7
  br label %15

15:                                               ; preds = %46, %14
  %16 = call ptr @getgrent()
  store ptr %16, ptr %6, align 8, !tbaa !25
  %17 = icmp ne ptr %16, null
  br i1 %17, label %18, label %47

18:                                               ; preds = %15
  call void @llvm.lifetime.start.p0(i64 8, ptr %7) #7
  %19 = load ptr, ptr %3, align 8, !tbaa !3
  %20 = load ptr, ptr %6, align 8, !tbaa !25
  %21 = call ptr @mkgrent(ptr noundef %19, ptr noundef %20)
  store ptr %21, ptr %7, align 8, !tbaa !3
  %22 = load ptr, ptr %7, align 8, !tbaa !3
  %23 = icmp eq ptr %22, null
  br i1 %23, label %29, label %24

24:                                               ; preds = %18
  %25 = load ptr, ptr %4, align 8, !tbaa !3
  %26 = load ptr, ptr %7, align 8, !tbaa !3
  %27 = call i32 @PyList_Append(ptr noundef %25, ptr noundef %26)
  %28 = icmp ne i32 %27, 0
  br i1 %28, label %29, label %42

29:                                               ; preds = %24, %18
  %30 = load ptr, ptr %7, align 8, !tbaa !3
  call void @Py_XDECREF(ptr noundef %30)
  br label %31

31:                                               ; preds = %29
  call void @llvm.lifetime.start.p0(i64 8, ptr %8) #7
  store ptr %4, ptr %8, align 8, !tbaa !17
  call void @llvm.lifetime.start.p0(i64 8, ptr %9) #7
  %32 = load ptr, ptr %8, align 8, !tbaa !17
  %33 = load ptr, ptr %32, align 8, !tbaa !3
  store ptr %33, ptr %9, align 8, !tbaa !3
  %34 = load ptr, ptr %9, align 8, !tbaa !3
  %35 = icmp ne ptr %34, null
  br i1 %35, label %36, label %39

36:                                               ; preds = %31
  %37 = load ptr, ptr %8, align 8, !tbaa !17
  store ptr null, ptr %37, align 8, !tbaa !3
  %38 = load ptr, ptr %9, align 8, !tbaa !3
  call void @Py_DECREF(ptr noundef %38)
  br label %39

39:                                               ; preds = %36, %31
  call void @llvm.lifetime.end.p0(i64 8, ptr %9) #7
  call void @llvm.lifetime.end.p0(i64 8, ptr %8) #7
  br label %40

40:                                               ; preds = %39
  br label %41

41:                                               ; preds = %40
  store i32 6, ptr %5, align 4
  br label %44

42:                                               ; preds = %24
  %43 = load ptr, ptr %7, align 8, !tbaa !3
  call void @Py_DECREF(ptr noundef %43)
  store i32 0, ptr %5, align 4
  br label %44

44:                                               ; preds = %41, %42
  call void @llvm.lifetime.end.p0(i64 8, ptr %7) #7
  %45 = load i32, ptr %5, align 4
  switch i32 %45, label %50 [
    i32 0, label %46
    i32 6, label %48
  ]

46:                                               ; preds = %44
  br label %15, !llvm.loop !44

47:                                               ; preds = %15
  br label %48

48:                                               ; preds = %47, %44
  call void @endgrent()
  call void @_PyMutex_Unlock(ptr noundef @grp_getgrall_impl.getgrall_mutex)
  %49 = load ptr, ptr %4, align 8, !tbaa !3
  store ptr %49, ptr %2, align 8
  store i32 1, ptr %5, align 4
  br label %50

50:                                               ; preds = %48, %44
  call void @llvm.lifetime.end.p0(i64 8, ptr %6) #7
  br label %51

51:                                               ; preds = %50, %13
  call void @llvm.lifetime.end.p0(i64 8, ptr %4) #7
  %52 = load ptr, ptr %2, align 8
  ret ptr %52
}

; Function Attrs: nounwind uwtable
define internal ptr @grp_getgrall(ptr noundef %0, ptr noundef %1) #0 {
  %3 = alloca ptr, align 8
  %4 = alloca ptr, align 8
  store ptr %0, ptr %3, align 8, !tbaa !3
  store ptr %1, ptr %4, align 8, !tbaa !3
  %5 = load ptr, ptr %3, align 8, !tbaa !3
  %6 = call ptr @grp_getgrall_impl(ptr noundef %5)
  ret ptr %6
}